target datalayout = "e-m:e-p270:32:32-p271:32:32-p272:64:64-i64:64-i128:128-f80:128-n8:16:32:64-S128"
target triple = "x86_64-pc-linux-gnu"

@_ZN6icu_7713CalendarCacheC1EiR10UErrorCode = unnamed_addr alias void (ptr, i32, ptr), ptr @_ZN6icu_7713CalendarCacheC2EiR10UErrorCode

; Function Attrs: inlinehint mustprogress nounwind uwtable
define internal noundef signext i8 @_ZL9U_FAILURE10UErrorCode(i32 noundef %0) #8 {
  %2 = alloca i32, align 4
  store i32 %0, ptr %2, align 4, !tbaa !50
  %3 = load i32, ptr %2, align 4, !tbaa !50
  %4 = icmp sgt i32 %3, 0
  %5 = zext i1 %4 to i8
  ret i8 %5
}

; Function Attrs: mustprogress uwtable
define void @_ZN6icu_7713CalendarCache11createCacheEPPS0_R10UErrorCode(ptr noundef %0, ptr noundef nonnull align 4 dereferenceable(4) %1) #0 align 2 personality ptr @__gxx_personality_v0 {
  %3 = alloca ptr, align 8
  %4 = alloca ptr, align 8
  %5 = alloca ptr, align 8
  %6 = alloca i1, align 1
  %7 = alloca ptr, align 8
  %8 = alloca i32, align 4
  store ptr %0, ptr %3, align 8, !tbaa !46
  store ptr %1, ptr %4, align 8, !tbaa !49
  call void @ucln_i18n_registerCleanup_77(i32 noundef 11, ptr noundef @_ZL22calendar_astro_cleanupv)
  %9 = load ptr, ptr %3, align 8, !tbaa !46
  %10 = icmp eq ptr %9, null
  br i1 %10, label %11, label %13

11:                                               ; preds = %2
  %12 = load ptr, ptr %4, align 8, !tbaa !49
  store i32 7, ptr %12, align 4, !tbaa !50
  br label %45

13:                                               ; preds = %2
  %14 = call noundef ptr @_ZN6icu_777UMemorynwEm(i64 noundef 16) #10
  %15 = icmp eq ptr %14, null
  store i1 false, ptr %6, align 1
  br i1 %15, label %19, label %16

16:                                               ; preds = %13
  store ptr %14, ptr %5, align 8
  store i1 true, ptr %6, align 1
  %17 = load ptr, ptr %4, align 8, !tbaa !49
  invoke void @_ZN6icu_7713CalendarCacheC1EiR10UErrorCode(ptr noundef nonnull align 8 dereferenceable(16) %14, i32 noundef 32, ptr noundef nonnull align 4 dereferenceable(4) %17)
          to label %18 unwind label %36

18:                                               ; preds = %16
  br label %19

19:                                               ; preds = %18, %13
  %20 = phi ptr [ %14, %18 ], [ null, %13 ]
  %21 = load ptr, ptr %3, align 8, !tbaa !46
  store ptr %20, ptr %21, align 8, !tbaa !52
  %22 = load ptr, ptr %4, align 8, !tbaa !49
  %23 = load i32, ptr %22, align 4, !tbaa !50
  %24 = call noundef signext i8 @_ZL9U_FAILURE10UErrorCode(i32 noundef %23)
  %25 = icmp ne i8 %24, 0
  br i1 %25, label %26, label %44

26:                                               ; preds = %19
  %27 = load ptr, ptr %3, align 8, !tbaa !46
  %28 = load ptr, ptr %27, align 8, !tbaa !52
  %29 = icmp eq ptr %28, null
  br i1 %29, label %34, label %30

30:                                               ; preds = %26
  %31 = load ptr, ptr %28, align 8, !tbaa !33
  %32 = getelementptr inbounds ptr, ptr %31, i64 1
  %33 = load ptr, ptr %32, align 8
  call void %33(ptr noundef nonnull align 8 dereferenceable(16) %28) #10
  br label %34

34:                                               ; preds = %30, %26
  %35 = load ptr, ptr %3, align 8, !tbaa !46
  store ptr null, ptr %35, align 8, !tbaa !52
  br label %44

36:                                               ; preds = %16
  %37 = landingpad { ptr, i32 }
          cleanup
  %38 = extractvalue { ptr, i32 } %37, 0
  store ptr %38, ptr %7, align 8
  %39 = extractvalue { ptr, i32 } %37, 1
  store i32 %39, ptr %8, align 4
  %40 = load i1, ptr %6, align 1
  br i1 %40, label %41, label %43

41:                                               ; preds = %36
  %42 = load ptr, ptr %5, align 8
  call void @_ZN6icu_777UMemorydlEPv(ptr noundef %42) #10
  br label %43

43:                                               ; preds = %41, %36
  br label %46

44:                                               ; preds = %34, %19
  br label %45

45:                                               ; preds = %44, %11
  ret void

46:                                               ; preds = %43
  %47 = load ptr, ptr %7, align 8
  %48 = load i32, ptr %8, align 4
  %49 = insertvalue { ptr, i32 } poison, ptr %47, 0
  %50 = insertvalue { ptr, i32 } %49, i32 %48, 1
  resume { ptr, i32 } %50
}