; Function Attrs: mustprogress uwtable
define void @_ZN6icu_7713CalendarCache11createCacheEPPS0_R10UErrorCode(ptr noundef writeonly %0, ptr noundef nonnull align 4 dereferenceable(4) %1) local_unnamed_addr #0 align 2 personality ptr @__gxx_personality_v0 {
  tail call void @ucln_i18n_registerCleanup_77(i32 noundef 11, ptr noundef nonnull @_ZL22calendar_astro_cleanupv)
  %3 = icmp eq ptr %0, null
  br i1 %3, label %4, label %5

4:                                                ; preds = %2
  store i32 7, ptr %1, align 4, !tbaa !27
  br label %20

5:                                                ; preds = %2
  %6 = tail call noundef ptr @_ZN6icu_777UMemorynwEm(i64 noundef 16) #16
  %7 = icmp eq ptr %6, null
  br i1 %7, label %.thread, label %8

8:                                                ; preds = %5
  invoke void @_ZN6icu_7713CalendarCacheC1EiR10UErrorCode(ptr noundef nonnull align 8 dereferenceable(16) %6, i32 noundef 32, ptr noundef nonnull align 4 dereferenceable(4) %1)
          to label %9 unwind label %18

9:                                                ; preds = %8
  store ptr %6, ptr %0, align 8, !tbaa !29
  %10 = load i32, ptr %1, align 4, !tbaa !27
  %11 = icmp slt i32 %10, 1
  br i1 %11, label %20, label %14

.thread:                                          ; preds = %5
  store ptr null, ptr %0, align 8, !tbaa !29
  %12 = load i32, ptr %1, align 4, !tbaa !27
  %13 = icmp slt i32 %12, 1
  br i1 %13, label %20, label %.thread13

14:                                               ; preds = %9
  %15 = load ptr, ptr %6, align 8, !tbaa !21
  %16 = getelementptr inbounds nuw i8, ptr %15, i64 8
  %17 = load ptr, ptr %16, align 8
  tail call void %17(ptr noundef nonnull align 8 dereferenceable(16) %6) #16
  br label %.thread13

.thread13:                                        ; preds = %.thread, %14
  store ptr null, ptr %0, align 8, !tbaa !29
  br label %20

18:                                               ; preds = %8
  %19 = landingpad { ptr, i32 }
          cleanup
  tail call void @_ZN6icu_777UMemorydlEPv(ptr noundef nonnull %6) #16
  resume { ptr, i32 } %19

20:                                               ; preds = %.thread, %9, %.thread13, %4
  ret void
}